; Function Attrs: nounwind uwtable
define noalias nonnull ptr @l_Std_Sat_AIG_relabelNat_x27___rarg(ptr noundef %0, ptr noundef %1, ptr noundef %2) #0 {
  %4 = ptrtoint ptr %1 to i64
  %5 = and i64 %4, 1
  %.not = icmp eq i64 %5, 0
  br i1 %.not, label %6, label %lean_inc.exit20

6:                                                ; preds = %3
  %.val.i = load i32, ptr %1, align 4, !tbaa !8
  %7 = icmp sgt i32 %.val.i, 0
  br i1 %7, label %8, label %10, !prof !15

8:                                                ; preds = %6
  %9 = add nuw i32 %.val.i, 1
  store i32 %9, ptr %1, align 4, !tbaa !8
  br label %lean_inc.exit20

10:                                               ; preds = %6
  %.not.i = icmp eq i32 %.val.i, 0
  br i1 %.not.i, label %lean_inc.exit20, label %11

11:                                               ; preds = %10
  tail call void @lean_inc_ref_cold(ptr noundef nonnull %1) #4
  br label %lean_inc.exit20

lean_inc.exit20:                                  ; preds = %11, %10, %8, %3
  %12 = ptrtoint ptr %0 to i64
  %13 = and i64 %12, 1
  %.not27 = icmp eq i64 %13, 0
  br i1 %.not27, label %14, label %lean_inc.exit19

14:                                               ; preds = %lean_inc.exit20
  %.val.i21 = load i32, ptr %0, align 4, !tbaa !8
  %15 = icmp sgt i32 %.val.i21, 0
  br i1 %15, label %16, label %18, !prof !15

16:                                               ; preds = %14
  %17 = add nuw i32 %.val.i21, 1
  store i32 %17, ptr %0, align 4, !tbaa !8
  br label %lean_inc.exit19

18:                                               ; preds = %14
  %.not.i22 = icmp eq i32 %.val.i21, 0
  br i1 %.not.i22, label %lean_inc.exit19, label %19

19:                                               ; preds = %18
  tail call void @lean_inc_ref_cold(ptr noundef nonnull %0) #4
  br label %lean_inc.exit19

lean_inc.exit19:                                  ; preds = %19, %18, %16, %lean_inc.exit20
  %20 = tail call ptr @l_Std_Sat_AIG_RelabelNat_State_ofAIG___rarg(ptr noundef %0, ptr noundef %1, ptr noundef %2)
  %21 = ptrtoint ptr %20 to i64
  %22 = and i64 %21, 1
  %.not28 = icmp eq i64 %22, 0
  br i1 %.not28, label %23, label %lean_inc.exit

23:                                               ; preds = %lean_inc.exit19
  %.val.i24 = load i32, ptr %20, align 4, !tbaa !8
  %24 = icmp sgt i32 %.val.i24, 0
  br i1 %24, label %25, label %27, !prof !15

25:                                               ; preds = %23
  %26 = add nuw i32 %.val.i24, 1
  store i32 %26, ptr %20, align 4, !tbaa !8
  br label %lean_inc.exit

27:                                               ; preds = %23
  %.not.i25 = icmp eq i32 %.val.i24, 0
  br i1 %.not.i25, label %lean_inc.exit, label %28

28:                                               ; preds = %27
  tail call void @lean_inc_ref_cold(ptr noundef nonnull %20) #4
  br label %lean_inc.exit

lean_inc.exit:                                    ; preds = %28, %27, %25, %lean_inc.exit19
  tail call void @lean_inc_heartbeat() #4
  %29 = tail call noalias ptr @mi_malloc_small(i64 noundef 48) #4
  %30 = icmp eq ptr %29, null
  br i1 %30, label %31, label %lean_alloc_closure.exit

31:                                               ; preds = %lean_inc.exit
  tail call void @lean_internal_panic_out_of_memory() #5
  unreachable

lean_alloc_closure.exit:                          ; preds = %lean_inc.exit
  %32 = getelementptr inbounds nuw i8, ptr %29, i64 4
  store i32 1, ptr %29, align 4, !tbaa !8
  store i32 -184549328, ptr %32, align 4
  %33 = getelementptr inbounds nuw i8, ptr %29, i64 8
  store ptr @l_Std_Sat_AIG_relabelNat_x27___rarg___lambda__1___boxed, ptr %33, align 8, !tbaa !4
  %34 = getelementptr inbounds nuw i8, ptr %29, i64 16
  store i16 4, ptr %34, align 8, !tbaa !13
  %35 = getelementptr inbounds nuw i8, ptr %29, i64 18
  store i16 3, ptr %35, align 2, !tbaa !13
  %36 = getelementptr inbounds nuw i8, ptr %29, i64 24
  store ptr %20, ptr %36, align 8, !tbaa !4
  %37 = getelementptr inbounds nuw i8, ptr %29, i64 32
  store ptr %1, ptr %37, align 8, !tbaa !4
  %38 = getelementptr inbounds nuw i8, ptr %29, i64 40
  store ptr %0, ptr %38, align 8, !tbaa !4
  %39 = tail call ptr @l_Std_Sat_AIG_relabel___at_Std_Sat_AIG_relabelNat_x27___spec__2___rarg(ptr noundef nonnull %29, ptr noundef %2)
  tail call void @lean_inc_heartbeat() #4
  %40 = tail call noalias ptr @mi_malloc_small(i64 noundef 24) #4
  %41 = icmp eq ptr %40, null
  br i1 %41, label %42, label %lean_alloc_ctor.exit

42:                                               ; preds = %lean_alloc_closure.exit
  tail call void @lean_internal_panic_out_of_memory() #5
  unreachable

lean_alloc_ctor.exit:                             ; preds = %lean_alloc_closure.exit
  %43 = getelementptr inbounds nuw i8, ptr %40, i64 4
  store i32 1, ptr %40, align 4, !tbaa !8
  store i32 131096, ptr %43, align 4
  %44 = getelementptr inbounds nuw i8, ptr %40, i64 8
  store ptr %39, ptr %44, align 8, !tbaa !4
  %45 = getelementptr inbounds nuw i8, ptr %40, i64 16
  store ptr %20, ptr %45, align 8, !tbaa !4
  ret ptr %40
}